ARM GAS  C:\Users\acer\AppData\Local\Temp\ccRfBnwc.s 			page 1


   1              		.syntax unified
   2              		.cpu cortex-m3
   3              		.fpu softvfp
   4              		.eabi_attribute 20, 1
   5              		.eabi_attribute 21, 1
   6              		.eabi_attribute 23, 3
   7              		.eabi_attribute 24, 1
   8              		.eabi_attribute 25, 1
   9              		.eabi_attribute 26, 1
  10              		.eabi_attribute 30, 1
  11              		.eabi_attribute 34, 1
  12              		.eabi_attribute 18, 4
  13              		.thumb
  14              		.syntax unified
  15              		.file	"main.c"
  16              		.text
  17              	.Ltext0:
  18              		.cfi_sections	.debug_frame
  19              		.section	.text.isr_UART,"ax",%progbits
  20              		.align	2
  21              		.global	isr_UART
  22              		.thumb
  23              		.thumb_func
  24              		.type	isr_UART, %function
  25              	isr_UART:
  26              	.LFB63:
  27              		.file 1 "source\\asw\\main.c"
   1:source\asw/main.c **** /* ========================================
   2:source\asw/main.c ****  *
   3:source\asw/main.c ****  * Copyright YOUR COMPANY, THE YEAR
   4:source\asw/main.c ****  * All Rights Reserved
   5:source\asw/main.c ****  * UNPUBLISHED, LICENSED SOFTWARE.
   6:source\asw/main.c ****  *
   7:source\asw/main.c ****  * CONFIDENTIAL AND PROPRIETARY INFORMATION
   8:source\asw/main.c ****  * WHICH IS THE PROPERTY OF your company.
   9:source\asw/main.c ****  *
  10:source\asw/main.c ****  * ========================================
  11:source\asw/main.c **** */
  12:source\asw/main.c **** #include "project.h"
  13:source\asw/main.c **** #include "statemachine.h"
  14:source\asw/main.c **** char charRx;
  15:source\asw/main.c **** uint8_t charS = 0;
  16:source\asw/main.c **** uint8_t charO = 0;
  17:source\asw/main.c **** uint8_t buttonPressed = 1;
  18:source\asw/main.c **** 
  19:source\asw/main.c **** CY_ISR_PROTO(isr_UART)
  20:source\asw/main.c **** {
  28              		.loc 1 20 0
  29              		.cfi_startproc
  30              		@ args = 0, pretend = 0, frame = 0
  31              		@ frame_needed = 0, uses_anonymous_args = 0
  32 0000 08B5     		push	{r3, lr}
  33              		.cfi_def_cfa_offset 8
  34              		.cfi_offset 3, -8
  35              		.cfi_offset 14, -4
  21:source\asw/main.c ****     isr_UART_ClearPending();
  36              		.loc 1 21 0
ARM GAS  C:\Users\acer\AppData\Local\Temp\ccRfBnwc.s 			page 2


  37 0002 FFF7FEFF 		bl	isr_UART_ClearPending
  38              	.LVL0:
  22:source\asw/main.c ****     charRx = UART_GetChar();
  39              		.loc 1 22 0
  40 0006 FFF7FEFF 		bl	UART_GetChar
  41              	.LVL1:
  42 000a 074B     		ldr	r3, .L5
  43 000c 1870     		strb	r0, [r3]
  23:source\asw/main.c ****     if(charRx == 's')
  44              		.loc 1 23 0
  45 000e 7328     		cmp	r0, #115
  46 0010 03D1     		bne	.L2
  24:source\asw/main.c ****     {
  25:source\asw/main.c ****         charS = 1;
  47              		.loc 1 25 0
  48 0012 0122     		movs	r2, #1
  49 0014 054B     		ldr	r3, .L5+4
  50 0016 1A70     		strb	r2, [r3]
  51 0018 08BD     		pop	{r3, pc}
  52              	.L2:
  26:source\asw/main.c ****     }
  27:source\asw/main.c ****     else if(charRx == 'o')
  53              		.loc 1 27 0
  54 001a 6F28     		cmp	r0, #111
  55 001c 02D1     		bne	.L1
  28:source\asw/main.c ****     {
  29:source\asw/main.c ****         charO = 1;
  56              		.loc 1 29 0
  57 001e 0122     		movs	r2, #1
  58 0020 024B     		ldr	r3, .L5+4
  59 0022 5A70     		strb	r2, [r3, #1]
  60              	.L1:
  61 0024 08BD     		pop	{r3, pc}
  62              	.L6:
  63 0026 00BF     		.align	2
  64              	.L5:
  65 0028 00000000 		.word	charRx
  66 002c 00000000 		.word	.LANCHOR0
  67              		.cfi_endproc
  68              	.LFE63:
  69              		.size	isr_UART, .-isr_UART
  70              		.section	.text.isr_pushButton,"ax",%progbits
  71              		.align	2
  72              		.global	isr_pushButton
  73              		.thumb
  74              		.thumb_func
  75              		.type	isr_pushButton, %function
  76              	isr_pushButton:
  77              	.LFB64:
  30:source\asw/main.c ****     }   
  31:source\asw/main.c **** }
  32:source\asw/main.c **** CY_ISR_PROTO(isr_pushButton)
  33:source\asw/main.c **** {
  78              		.loc 1 33 0
  79              		.cfi_startproc
  80              		@ args = 0, pretend = 0, frame = 0
  81              		@ frame_needed = 0, uses_anonymous_args = 0
ARM GAS  C:\Users\acer\AppData\Local\Temp\ccRfBnwc.s 			page 3


  82 0000 08B5     		push	{r3, lr}
  83              		.cfi_def_cfa_offset 8
  84              		.cfi_offset 3, -8
  85              		.cfi_offset 14, -4
  34:source\asw/main.c ****     isr_pushButton_ClearPending();
  86              		.loc 1 34 0
  87 0002 FFF7FEFF 		bl	isr_pushButton_ClearPending
  88              	.LVL2:
  35:source\asw/main.c ****     if( buttonPressed == 0 )
  89              		.loc 1 35 0
  90 0006 054B     		ldr	r3, .L10
  91 0008 1B78     		ldrb	r3, [r3]	@ zero_extendqisi2
  92 000a 2BB9     		cbnz	r3, .L7
  36:source\asw/main.c ****     {
  37:source\asw/main.c ****         UART_PutString("Pressed");
  93              		.loc 1 37 0
  94 000c 0448     		ldr	r0, .L10+4
  95 000e FFF7FEFF 		bl	UART_PutString
  96              	.LVL3:
  38:source\asw/main.c ****         buttonPressed = 1;
  97              		.loc 1 38 0
  98 0012 0122     		movs	r2, #1
  99 0014 014B     		ldr	r3, .L10
 100 0016 1A70     		strb	r2, [r3]
 101              	.L7:
 102 0018 08BD     		pop	{r3, pc}
 103              	.L11:
 104 001a 00BF     		.align	2
 105              	.L10:
 106 001c 00000000 		.word	.LANCHOR1
 107 0020 00000000 		.word	.LC0
 108              		.cfi_endproc
 109              	.LFE64:
 110              		.size	isr_pushButton, .-isr_pushButton
 111              		.section	.text.main,"ax",%progbits
 112              		.align	2
 113              		.global	main
 114              		.thumb
 115              		.thumb_func
 116              		.type	main, %function
 117              	main:
 118              	.LFB65:
  39:source\asw/main.c ****     }
  40:source\asw/main.c **** }
  41:source\asw/main.c **** int main(void)
  42:source\asw/main.c **** {
 119              		.loc 1 42 0
 120              		.cfi_startproc
 121              		@ Volatile: function does not return.
 122              		@ args = 0, pretend = 0, frame = 0
 123              		@ frame_needed = 0, uses_anonymous_args = 0
 124 0000 08B5     		push	{r3, lr}
 125              		.cfi_def_cfa_offset 8
 126              		.cfi_offset 3, -8
 127              		.cfi_offset 14, -4
  43:source\asw/main.c ****     CyGlobalIntEnable; /* Enable global interrupts. */
 128              		.loc 1 43 0
ARM GAS  C:\Users\acer\AppData\Local\Temp\ccRfBnwc.s 			page 4


 129              		.syntax unified
 130              	@ 43 "source\asw\main.c" 1
 131 0002 62B6     		CPSIE   i
 132              	@ 0 "" 2
  44:source\asw/main.c ****     UART_Init();
 133              		.loc 1 44 0
 134              		.thumb
 135              		.syntax unified
 136 0004 FFF7FEFF 		bl	UART_Init
 137              	.LVL4:
  45:source\asw/main.c ****     WaveDAC8_Init();    
 138              		.loc 1 45 0
 139 0008 FFF7FEFF 		bl	WaveDAC8_Init
 140              	.LVL5:
  46:source\asw/main.c ****     ADC_DelSig_Init();
 141              		.loc 1 46 0
 142 000c FFF7FEFF 		bl	ADC_DelSig_Init
 143              	.LVL6:
  47:source\asw/main.c ****     UART_Start();
 144              		.loc 1 47 0
 145 0010 FFF7FEFF 		bl	UART_Start
 146              	.LVL7:
  48:source\asw/main.c ****     WaveDAC8_Start();
 147              		.loc 1 48 0
 148 0014 FFF7FEFF 		bl	WaveDAC8_Start
 149              	.LVL8:
  49:source\asw/main.c ****     ADC_DelSig_Start();
 150              		.loc 1 49 0
 151 0018 FFF7FEFF 		bl	ADC_DelSig_Start
 152              	.LVL9:
  50:source\asw/main.c ****     ADC_DelSig_StartConvert();
 153              		.loc 1 50 0
 154 001c FFF7FEFF 		bl	ADC_DelSig_StartConvert
 155              	.LVL10:
  51:source\asw/main.c **** 
  52:source\asw/main.c ****     isr_pushButton_StartEx(isr_pushButton);
 156              		.loc 1 52 0
 157 0020 0548     		ldr	r0, .L15
 158 0022 FFF7FEFF 		bl	isr_pushButton_StartEx
 159              	.LVL11:
  53:source\asw/main.c ****     isr_UART_StartEx(isr_UART);
 160              		.loc 1 53 0
 161 0026 0548     		ldr	r0, .L15+4
 162 0028 FFF7FEFF 		bl	isr_UART_StartEx
 163              	.LVL12:
  54:source\asw/main.c ****     
  55:source\asw/main.c ****     UART_PutString("Lab3");
 164              		.loc 1 55 0
 165 002c 0448     		ldr	r0, .L15+8
 166 002e FFF7FEFF 		bl	UART_PutString
 167              	.LVL13:
 168              	.L13:
  56:source\asw/main.c ****     
  57:source\asw/main.c ****     /* Place your initialization/startup code here (e.g. MyInst_Start()) */
  58:source\asw/main.c ****     for(;;)
  59:source\asw/main.c ****     {
  60:source\asw/main.c ****         statemachine();
ARM GAS  C:\Users\acer\AppData\Local\Temp\ccRfBnwc.s 			page 5


 169              		.loc 1 60 0 discriminator 1
 170 0032 FFF7FEFF 		bl	statemachine
 171              	.LVL14:
 172 0036 FCE7     		b	.L13
 173              	.L16:
 174              		.align	2
 175              	.L15:
 176 0038 00000000 		.word	isr_pushButton
 177 003c 00000000 		.word	isr_UART
 178 0040 08000000 		.word	.LC1
 179              		.cfi_endproc
 180              	.LFE65:
 181              		.size	main, .-main
 182              		.global	buttonPressed
 183              		.global	charO
 184              		.global	charS
 185              		.comm	charRx,1,1
 186              		.data
 187              		.set	.LANCHOR1,. + 0
 188              		.type	buttonPressed, %object
 189              		.size	buttonPressed, 1
 190              	buttonPressed:
 191 0000 01       		.byte	1
 192              		.section	.rodata.str1.4,"aMS",%progbits,1
 193              		.align	2
 194              	.LC0:
 195 0000 50726573 		.ascii	"Pressed\000"
 195      73656400 
 196              	.LC1:
 197 0008 4C616233 		.ascii	"Lab3\000"
 197      00
 198              		.bss
 199              		.set	.LANCHOR0,. + 0
 200              		.type	charS, %object
 201              		.size	charS, 1
 202              	charS:
 203 0000 00       		.space	1
 204              		.type	charO, %object
 205              		.size	charO, 1
 206              	charO:
 207 0001 00       		.space	1
 208              		.text
 209              	.Letext0:
 210              		.file 2 "c:\\program files (x86)\\cypress\\psoc creator\\4.4\\psoc creator\\import\\gnu\\arm\\5.4.
 211              		.file 3 "c:\\program files (x86)\\cypress\\psoc creator\\4.4\\psoc creator\\import\\gnu\\arm\\5.4.
 212              		.file 4 "Generated_Source\\PSoC5/core_cm3.h"
 213              		.file 5 "Generated_Source\\PSoC5/isr_UART.h"
 214              		.file 6 "Generated_Source\\PSoC5/UART.h"
 215              		.file 7 "Generated_Source\\PSoC5/isr_pushButton.h"
 216              		.file 8 "Generated_Source\\PSoC5/WaveDAC8.h"
 217              		.file 9 "Generated_Source\\PSoC5/ADC_DelSig.h"
 218              		.file 10 ".\\source\\bsw/statemachine.h"