ARM GAS  C:\Users\acer\AppData\Local\Temp\ccudDKra.s 			page 1


   1              		.syntax unified
   2              		.cpu cortex-m3
   3              		.fpu softvfp
   4              		.eabi_attribute 20, 1
   5              		.eabi_attribute 21, 1
   6              		.eabi_attribute 23, 3
   7              		.eabi_attribute 24, 1
   8              		.eabi_attribute 25, 1
   9              		.eabi_attribute 26, 1
  10              		.eabi_attribute 30, 1
  11              		.eabi_attribute 34, 1
  12              		.eabi_attribute 18, 4
  13              		.thumb
  14              		.syntax unified
  15              		.file	"statemachine.c"
  16              		.text
  17              	.Ltext0:
  18              		.cfi_sections	.debug_frame
  19              		.section	.text.isr_UART,"ax",%progbits
  20              		.align	2
  21              		.global	isr_UART
  22              		.thumb
  23              		.thumb_func
  24              		.type	isr_UART, %function
  25              	isr_UART:
  26              	.LFB120:
  27              		.file 1 "source\\bsw\\statemachine.c"
   1:source\bsw/statemachine.c **** /**
   2:source\bsw/statemachine.c **** * \file statemachine.c
   3:source\bsw/statemachine.c **** * \author 
   4:source\bsw/statemachine.c **** * \date 
   5:source\bsw/statemachine.c **** *
   6:source\bsw/statemachine.c **** * \brief 
   7:source\bsw/statemachine.c **** *
   8:source\bsw/statemachine.c **** * \copyright Copyright ©2016
   9:source\bsw/statemachine.c **** * Department of electrical engineering and information technology, Hochschule Darmstadt - Universit
  10:source\bsw/statemachine.c **** * Permission to use, copy, modify, and distribute this software and its documentation for education
  11:source\bsw/statemachine.c **** * (unless permitted by h_da) and official h_da projects, is hereby granted for enrolled students of
  12:source\bsw/statemachine.c **** * this paragraph and the following paragraph appear in all copies, modifications, and distributions
  13:source\bsw/statemachine.c **** * Contact Prof.Dr.-Ing. Peter Fromm, peter.fromm@h-da.de, Birkenweg 8 64295 Darmstadt - GERMANY for
  14:source\bsw/statemachine.c **** *
  15:source\bsw/statemachine.c **** * \warning This software is a PROTOTYPE version and is not designed or intended for use in producti
  16:source\bsw/statemachine.c **** * The user represents and warrants that it will NOT use or redistribute the Software for such purpo
  17:source\bsw/statemachine.c **** * This prototype is for research purposes only. This software is provided "AS IS," without a warran
  18:source\bsw/statemachine.c **** */
  19:source\bsw/statemachine.c **** 
  20:source\bsw/statemachine.c **** /*****************************************************************************/
  21:source\bsw/statemachine.c **** /* Include files                                                             */
  22:source\bsw/statemachine.c **** /*****************************************************************************/
  23:source\bsw/statemachine.c **** 
  24:source\bsw/statemachine.c **** #include "statemachine.h"
  25:source\bsw/statemachine.c **** 
  26:source\bsw/statemachine.c **** /*****************************************************************************/
  27:source\bsw/statemachine.c **** /* Local pre-processor symbols/macros ('#define')                            */
  28:source\bsw/statemachine.c **** /*****************************************************************************/
  29:source\bsw/statemachine.c **** 
  30:source\bsw/statemachine.c **** /*****************************************************************************/
ARM GAS  C:\Users\acer\AppData\Local\Temp\ccudDKra.s 			page 2


  31:source\bsw/statemachine.c **** /* Global variable definitions (declared in header file with 'extern')       */
  32:source\bsw/statemachine.c **** /*****************************************************************************/
  33:source\bsw/statemachine.c **** 
  34:source\bsw/statemachine.c **** /*****************************************************************************/
  35:source\bsw/statemachine.c **** /* Local type definitions ('typedef')                                        */
  36:source\bsw/statemachine.c **** /*****************************************************************************/
  37:source\bsw/statemachine.c **** 
  38:source\bsw/statemachine.c **** /*****************************************************************************/
  39:source\bsw/statemachine.c **** /* Local variable definitions ('static')                                     */
  40:source\bsw/statemachine.c **** /*****************************************************************************/
  41:source\bsw/statemachine.c **** 
  42:source\bsw/statemachine.c **** // State machine's initial state
  43:source\bsw/statemachine.c **** FFT_State_t state = IDLE;
  44:source\bsw/statemachine.c **** 
  45:source\bsw/statemachine.c **** // Variable to store received character from UART
  46:source\bsw/statemachine.c **** char charRx;
  47:source\bsw/statemachine.c **** 
  48:source\bsw/statemachine.c **** // Counter variable
  49:source\bsw/statemachine.c **** uint8_t count = 0;
  50:source\bsw/statemachine.c **** 
  51:source\bsw/statemachine.c **** // Flags to indicate reception of specific characters, 's' and 'o'
  52:source\bsw/statemachine.c **** uint8_t charS = 0;
  53:source\bsw/statemachine.c **** uint8_t charO = 0;
  54:source\bsw/statemachine.c **** 
  55:source\bsw/statemachine.c **** // Flag to indicate button press (Note: volatile to handle changes in interrupt)
  56:source\bsw/statemachine.c **** volatile uint8_t buttonPressed = 0;
  57:source\bsw/statemachine.c **** 
  58:source\bsw/statemachine.c **** // Array to store the result of the FFT calculation
  59:source\bsw/statemachine.c **** int32 fftArray[2 * SAMPLES] = {0}; 
  60:source\bsw/statemachine.c **** 
  61:source\bsw/statemachine.c **** /*****************************************************************************/
  62:source\bsw/statemachine.c **** /* Local function prototypes ('static')                                      */
  63:source\bsw/statemachine.c **** /*****************************************************************************/
  64:source\bsw/statemachine.c **** 
  65:source\bsw/statemachine.c **** /*
  66:source\bsw/statemachine.c ****  * init_func function initializes all the Hardware used in the top design.
  67:source\bsw/statemachine.c ****  * @param : None
  68:source\bsw/statemachine.c ****  * @return : None
  69:source\bsw/statemachine.c ****  */
  70:source\bsw/statemachine.c **** void init_func()
  71:source\bsw/statemachine.c **** {
  72:source\bsw/statemachine.c ****     // Start UART communication
  73:source\bsw/statemachine.c ****     UART_Start();
  74:source\bsw/statemachine.c **** 
  75:source\bsw/statemachine.c ****     // Start Wave DAC (Digital-to-Analog Converter)
  76:source\bsw/statemachine.c ****     WaveDAC_Start();
  77:source\bsw/statemachine.c **** 
  78:source\bsw/statemachine.c ****     // Start ADC (Analog-to-Digital Converter)
  79:source\bsw/statemachine.c ****     ADC_DelSig_Start();
  80:source\bsw/statemachine.c **** 
  81:source\bsw/statemachine.c ****     // Start ADC conversion
  82:source\bsw/statemachine.c ****     ADC_DelSig_StartConvert();
  83:source\bsw/statemachine.c **** 
  84:source\bsw/statemachine.c ****     // Start interrupt service routine for push button
  85:source\bsw/statemachine.c ****     isr_pushButton_StartEx(isr_pushButton);
  86:source\bsw/statemachine.c **** 
  87:source\bsw/statemachine.c ****     // Start interrupt service routine for UART
ARM GAS  C:\Users\acer\AppData\Local\Temp\ccudDKra.s 			page 3


  88:source\bsw/statemachine.c ****     isr_UART_StartEx(isr_UART);
  89:source\bsw/statemachine.c **** }
  90:source\bsw/statemachine.c **** 
  91:source\bsw/statemachine.c **** /*
  92:source\bsw/statemachine.c ****  * Interrupt function that sets 'charS' and 'charO' variable to 1 if the UART 
  93:source\bsw/statemachine.c ****  * receives 's' and 'o' characters respectively from the MATLAB script.
  94:source\bsw/statemachine.c ****  */
  95:source\bsw/statemachine.c **** CY_ISR(isr_UART)
  96:source\bsw/statemachine.c **** {
  28              		.loc 1 96 0
  29              		.cfi_startproc
  30              		@ args = 0, pretend = 0, frame = 0
  31              		@ frame_needed = 0, uses_anonymous_args = 0
  32 0000 08B5     		push	{r3, lr}
  33              		.cfi_def_cfa_offset 8
  34              		.cfi_offset 3, -8
  35              		.cfi_offset 14, -4
  97:source\bsw/statemachine.c ****     // Clear pending UART interrupt
  98:source\bsw/statemachine.c ****     isr_UART_ClearPending();
  36              		.loc 1 98 0
  37 0002 FFF7FEFF 		bl	isr_UART_ClearPending
  38              	.LVL0:
  99:source\bsw/statemachine.c **** 
 100:source\bsw/statemachine.c ****     // Get character from UART
 101:source\bsw/statemachine.c ****     charRx = UART_GetChar();
  39              		.loc 1 101 0
  40 0006 FFF7FEFF 		bl	UART_GetChar
  41              	.LVL1:
  42 000a 064B     		ldr	r3, .L5
  43 000c 1870     		strb	r0, [r3]
 102:source\bsw/statemachine.c **** 
 103:source\bsw/statemachine.c ****     // Check if received character is 's'
 104:source\bsw/statemachine.c ****     if (charRx == 's') {
  44              		.loc 1 104 0
  45 000e 7328     		cmp	r0, #115
  46 0010 02D1     		bne	.L2
 105:source\bsw/statemachine.c ****         charS = 1;
  47              		.loc 1 105 0
  48 0012 0122     		movs	r2, #1
  49 0014 044B     		ldr	r3, .L5+4
  50 0016 1A70     		strb	r2, [r3]
  51              	.L2:
 106:source\bsw/statemachine.c ****     }
 107:source\bsw/statemachine.c **** 
 108:source\bsw/statemachine.c ****     // Check if received character is 'o'
 109:source\bsw/statemachine.c ****     if (charRx == 'o') {
  52              		.loc 1 109 0
  53 0018 6F28     		cmp	r0, #111
  54 001a 02D1     		bne	.L1
 110:source\bsw/statemachine.c ****         charO = 1;
  55              		.loc 1 110 0
  56 001c 0122     		movs	r2, #1
  57 001e 024B     		ldr	r3, .L5+4
  58 0020 5A70     		strb	r2, [r3, #1]
  59              	.L1:
  60 0022 08BD     		pop	{r3, pc}
  61              	.L6:
ARM GAS  C:\Users\acer\AppData\Local\Temp\ccudDKra.s 			page 4


  62              		.align	2
  63              	.L5:
  64 0024 00000000 		.word	charRx
  65 0028 00000000 		.word	.LANCHOR0
  66              		.cfi_endproc
  67              	.LFE120:
  68              		.size	isr_UART, .-isr_UART
  69              		.section	.text.isr_pushButton,"ax",%progbits
  70              		.align	2
  71              		.global	isr_pushButton
  72              		.thumb
  73              		.thumb_func
  74              		.type	isr_pushButton, %function
  75              	isr_pushButton:
  76              	.LFB121:
 111:source\bsw/statemachine.c ****     }   
 112:source\bsw/statemachine.c **** }
 113:source\bsw/statemachine.c **** 
 114:source\bsw/statemachine.c **** /*
 115:source\bsw/statemachine.c ****  * Interrupt function that sets a buttonPressed variable to 1 if the PushButton is pressed.
 116:source\bsw/statemachine.c ****  */
 117:source\bsw/statemachine.c **** CY_ISR(isr_pushButton)
 118:source\bsw/statemachine.c **** {
  77              		.loc 1 118 0
  78              		.cfi_startproc
  79              		@ args = 0, pretend = 0, frame = 0
  80              		@ frame_needed = 0, uses_anonymous_args = 0
  81 0000 08B5     		push	{r3, lr}
  82              		.cfi_def_cfa_offset 8
  83              		.cfi_offset 3, -8
  84              		.cfi_offset 14, -4
 119:source\bsw/statemachine.c ****     // Clears any active interrupts attached with the component and returns 
 120:source\bsw/statemachine.c ****     //  the value of the interrupt status register allowing determination of which
 121:source\bsw/statemachine.c ****     //  pins generated an interrupt event.
 122:source\bsw/statemachine.c ****     Push_Button_ClearInterrupt();
  85              		.loc 1 122 0
  86 0002 FFF7FEFF 		bl	Push_Button_ClearInterrupt
  87              	.LVL2:
 123:source\bsw/statemachine.c **** 
 124:source\bsw/statemachine.c ****     // Set buttonPressed flag if not already set
 125:source\bsw/statemachine.c ****     if (buttonPressed == 0) {
  88              		.loc 1 125 0
  89 0006 044B     		ldr	r3, .L10
  90 0008 9B78     		ldrb	r3, [r3, #2]	@ zero_extendqisi2
  91 000a 13F0FF0F 		tst	r3, #255
  92 000e 02D1     		bne	.L7
 126:source\bsw/statemachine.c ****         buttonPressed = 1;
  93              		.loc 1 126 0
  94 0010 0122     		movs	r2, #1
  95 0012 014B     		ldr	r3, .L10
  96 0014 9A70     		strb	r2, [r3, #2]
  97              	.L7:
  98 0016 08BD     		pop	{r3, pc}
  99              	.L11:
 100              		.align	2
 101              	.L10:
 102 0018 00000000 		.word	.LANCHOR0
ARM GAS  C:\Users\acer\AppData\Local\Temp\ccudDKra.s 			page 5


 103              		.cfi_endproc
 104              	.LFE121:
 105              		.size	isr_pushButton, .-isr_pushButton
 106              		.section	.text.init_func,"ax",%progbits
 107              		.align	2
 108              		.global	init_func
 109              		.thumb
 110              		.thumb_func
 111              		.type	init_func, %function
 112              	init_func:
 113              	.LFB119:
  71:source\bsw/statemachine.c ****     // Start UART communication
 114              		.loc 1 71 0
 115              		.cfi_startproc
 116              		@ args = 0, pretend = 0, frame = 0
 117              		@ frame_needed = 0, uses_anonymous_args = 0
 118 0000 08B5     		push	{r3, lr}
 119              		.cfi_def_cfa_offset 8
 120              		.cfi_offset 3, -8
 121              		.cfi_offset 14, -4
  73:source\bsw/statemachine.c **** 
 122              		.loc 1 73 0
 123 0002 FFF7FEFF 		bl	UART_Start
 124              	.LVL3:
  76:source\bsw/statemachine.c **** 
 125              		.loc 1 76 0
 126 0006 FFF7FEFF 		bl	WaveDAC_Start
 127              	.LVL4:
  79:source\bsw/statemachine.c **** 
 128              		.loc 1 79 0
 129 000a FFF7FEFF 		bl	ADC_DelSig_Start
 130              	.LVL5:
  82:source\bsw/statemachine.c **** 
 131              		.loc 1 82 0
 132 000e FFF7FEFF 		bl	ADC_DelSig_StartConvert
 133              	.LVL6:
  85:source\bsw/statemachine.c **** 
 134              		.loc 1 85 0
 135 0012 0348     		ldr	r0, .L14
 136 0014 FFF7FEFF 		bl	isr_pushButton_StartEx
 137              	.LVL7:
  88:source\bsw/statemachine.c **** }
 138              		.loc 1 88 0
 139 0018 0248     		ldr	r0, .L14+4
 140 001a FFF7FEFF 		bl	isr_UART_StartEx
 141              	.LVL8:
 142 001e 08BD     		pop	{r3, pc}
 143              	.L15:
 144              		.align	2
 145              	.L14:
 146 0020 00000000 		.word	isr_pushButton
 147 0024 00000000 		.word	isr_UART
 148              		.cfi_endproc
 149              	.LFE119:
 150              		.size	init_func, .-init_func
 151              		.section	.text.statemachine,"ax",%progbits
 152              		.align	2
ARM GAS  C:\Users\acer\AppData\Local\Temp\ccudDKra.s 			page 6


 153              		.global	statemachine
 154              		.thumb
 155              		.thumb_func
 156              		.type	statemachine, %function
 157              	statemachine:
 158              	.LFB122:
 127:source\bsw/statemachine.c ****     }
 128:source\bsw/statemachine.c **** }
 129:source\bsw/statemachine.c **** 
 130:source\bsw/statemachine.c **** /*
 131:source\bsw/statemachine.c ****  * statemachine function to handle the state transitions and actions.
 132:source\bsw/statemachine.c ****  * @param : uint16_t *adcArray - Pointer to the array to store ADC samples.
 133:source\bsw/statemachine.c ****  * @return : None
 134:source\bsw/statemachine.c ****  */
 135:source\bsw/statemachine.c **** void statemachine(uint16_t *adcArray)
 136:source\bsw/statemachine.c **** {
 159              		.loc 1 136 0
 160              		.cfi_startproc
 161              		@ args = 0, pretend = 0, frame = 0
 162              		@ frame_needed = 0, uses_anonymous_args = 0
 163              	.LVL9:
 164 0000 38B5     		push	{r3, r4, r5, lr}
 165              		.cfi_def_cfa_offset 16
 166              		.cfi_offset 3, -16
 167              		.cfi_offset 4, -12
 168              		.cfi_offset 5, -8
 169              		.cfi_offset 14, -4
 170 0002 0546     		mov	r5, r0
 137:source\bsw/statemachine.c ****     switch (state)
 171              		.loc 1 137 0
 172 0004 384B     		ldr	r3, .L29
 173 0006 DB78     		ldrb	r3, [r3, #3]	@ zero_extendqisi2
 174 0008 012B     		cmp	r3, #1
 175 000a 19D0     		beq	.L18
 176 000c 13B1     		cbz	r3, .L19
 177 000e 022B     		cmp	r3, #2
 178 0010 37D0     		beq	.L20
 179 0012 65E0     		b	.L27
 180              	.L19:
 138:source\bsw/statemachine.c ****     {
 139:source\bsw/statemachine.c ****         case IDLE:
 140:source\bsw/statemachine.c ****             // Turn on red LED to indicate IDLE state
 141:source\bsw/statemachine.c ****             LED_RED_Write(1);
 181              		.loc 1 141 0
 182 0014 0120     		movs	r0, #1
 183              	.LVL10:
 184 0016 FFF7FEFF 		bl	LED_RED_Write
 185              	.LVL11:
 142:source\bsw/statemachine.c ****             LED_ORANGE_Write(0);
 186              		.loc 1 142 0
 187 001a 0020     		movs	r0, #0
 188 001c FFF7FEFF 		bl	LED_ORANGE_Write
 189              	.LVL12:
 143:source\bsw/statemachine.c ****             LED_GREEN_Write(0);
 190              		.loc 1 143 0
 191 0020 0020     		movs	r0, #0
 192 0022 FFF7FEFF 		bl	LED_GREEN_Write
ARM GAS  C:\Users\acer\AppData\Local\Temp\ccudDKra.s 			page 7


 193              	.LVL13:
 144:source\bsw/statemachine.c **** 
 145:source\bsw/statemachine.c ****             // Reset counter
 146:source\bsw/statemachine.c ****             count = 0;  
 194              		.loc 1 146 0
 195 0026 304B     		ldr	r3, .L29
 196 0028 0022     		movs	r2, #0
 197 002a 1A71     		strb	r2, [r3, #4]
 147:source\bsw/statemachine.c **** 
 148:source\bsw/statemachine.c ****             // If button is pressed, transition to SAMPLING state
 149:source\bsw/statemachine.c ****             if (buttonPressed == 1) {
 198              		.loc 1 149 0
 199 002c 9B78     		ldrb	r3, [r3, #2]	@ zero_extendqisi2
 200 002e DBB2     		uxtb	r3, r3
 201 0030 012B     		cmp	r3, #1
 202 0032 58D1     		bne	.L16
 150:source\bsw/statemachine.c ****                 state = SAMPLING;
 203              		.loc 1 150 0
 204 0034 2C4B     		ldr	r3, .L29
 205 0036 0122     		movs	r2, #1
 206 0038 DA70     		strb	r2, [r3, #3]
 151:source\bsw/statemachine.c ****                 buttonPressed = 0;
 207              		.loc 1 151 0
 208 003a 0022     		movs	r2, #0
 209 003c 9A70     		strb	r2, [r3, #2]
 210 003e 38BD     		pop	{r3, r4, r5, pc}
 211              	.LVL14:
 212              	.L18:
 152:source\bsw/statemachine.c ****             }
 153:source\bsw/statemachine.c ****             break;
 154:source\bsw/statemachine.c ****         
 155:source\bsw/statemachine.c ****         case SAMPLING:
 156:source\bsw/statemachine.c ****             
 157:source\bsw/statemachine.c ****             // Turn on orange LED to indicate SAMPLING state
 158:source\bsw/statemachine.c ****             LED_RED_Write(0);
 213              		.loc 1 158 0
 214 0040 0020     		movs	r0, #0
 215              	.LVL15:
 216 0042 FFF7FEFF 		bl	LED_RED_Write
 217              	.LVL16:
 159:source\bsw/statemachine.c ****             LED_ORANGE_Write(1);
 218              		.loc 1 159 0
 219 0046 0120     		movs	r0, #1
 220 0048 FFF7FEFF 		bl	LED_ORANGE_Write
 221              	.LVL17:
 160:source\bsw/statemachine.c ****             LED_GREEN_Write(0);
 222              		.loc 1 160 0
 223 004c 0020     		movs	r0, #0
 224 004e FFF7FEFF 		bl	LED_GREEN_Write
 225              	.LVL18:
 226              	.LBB2:
 161:source\bsw/statemachine.c ****             
 162:source\bsw/statemachine.c ****             
 163:source\bsw/statemachine.c ****             // Sample ADC values and store in adcArray
 164:source\bsw/statemachine.c ****             for (uint16_t i = 0; i < 1024; i++) {
 227              		.loc 1 164 0
 228 0052 0024     		movs	r4, #0
ARM GAS  C:\Users\acer\AppData\Local\Temp\ccudDKra.s 			page 8


 229 0054 08E0     		b	.L22
 230              	.LVL19:
 231              	.L23:
 165:source\bsw/statemachine.c ****                 ADC_DelSig_IsEndConversion(ADC_DelSig_WAIT_FOR_RESULT);
 232              		.loc 1 165 0 discriminator 3
 233 0056 0020     		movs	r0, #0
 234 0058 FFF7FEFF 		bl	ADC_DelSig_IsEndConversion
 235              	.LVL20:
 166:source\bsw/statemachine.c ****                 adcArray[i] = (uint16_t)ADC_DelSig_GetResult32();
 236              		.loc 1 166 0 discriminator 3
 237 005c FFF7FEFF 		bl	ADC_DelSig_GetResult32
 238              	.LVL21:
 239 0060 25F81400 		strh	r0, [r5, r4, lsl #1]	@ movhi
 164:source\bsw/statemachine.c ****                 ADC_DelSig_IsEndConversion(ADC_DelSig_WAIT_FOR_RESULT);
 240              		.loc 1 164 0 discriminator 3
 241 0064 0134     		adds	r4, r4, #1
 242              	.LVL22:
 243 0066 A4B2     		uxth	r4, r4
 244              	.LVL23:
 245              	.L22:
 164:source\bsw/statemachine.c ****                 ADC_DelSig_IsEndConversion(ADC_DelSig_WAIT_FOR_RESULT);
 246              		.loc 1 164 0 is_stmt 0 discriminator 1
 247 0068 B4F5806F 		cmp	r4, #1024
 248 006c F3D3     		bcc	.L23
 249              	.LBE2:
 167:source\bsw/statemachine.c ****             }
 168:source\bsw/statemachine.c **** 
 169:source\bsw/statemachine.c ****             // If 's' character received, transition to UART_TRANSFER state
 170:source\bsw/statemachine.c ****             if (charS) {
 250              		.loc 1 170 0 is_stmt 1
 251 006e 1E4B     		ldr	r3, .L29
 252 0070 1B78     		ldrb	r3, [r3]	@ zero_extendqisi2
 253 0072 002B     		cmp	r3, #0
 254 0074 37D0     		beq	.L16
 171:source\bsw/statemachine.c ****                 state = UART_TRANSFER;
 255              		.loc 1 171 0
 256 0076 1C4B     		ldr	r3, .L29
 257 0078 0222     		movs	r2, #2
 258 007a DA70     		strb	r2, [r3, #3]
 172:source\bsw/statemachine.c ****                 charS = 0;
 259              		.loc 1 172 0
 260 007c 0022     		movs	r2, #0
 261 007e 1A70     		strb	r2, [r3]
 262 0080 38BD     		pop	{r3, r4, r5, pc}
 263              	.LVL24:
 264              	.L20:
 173:source\bsw/statemachine.c ****             }
 174:source\bsw/statemachine.c ****             break;
 175:source\bsw/statemachine.c ****         
 176:source\bsw/statemachine.c ****         case UART_TRANSFER:
 177:source\bsw/statemachine.c ****             
 178:source\bsw/statemachine.c ****             // Turn on green LED to indicate UART_TRANSFER state
 179:source\bsw/statemachine.c ****             LED_RED_Write(0);
 265              		.loc 1 179 0
 266 0082 0020     		movs	r0, #0
 267              	.LVL25:
 268 0084 FFF7FEFF 		bl	LED_RED_Write
ARM GAS  C:\Users\acer\AppData\Local\Temp\ccudDKra.s 			page 9


 269              	.LVL26:
 180:source\bsw/statemachine.c ****             LED_ORANGE_Write(0);
 270              		.loc 1 180 0
 271 0088 0020     		movs	r0, #0
 272 008a FFF7FEFF 		bl	LED_ORANGE_Write
 273              	.LVL27:
 181:source\bsw/statemachine.c ****             LED_GREEN_Write(1);
 274              		.loc 1 181 0
 275 008e 0120     		movs	r0, #1
 276 0090 FFF7FEFF 		bl	LED_GREEN_Write
 277              	.LVL28:
 278              	.LBB3:
 182:source\bsw/statemachine.c ****             
 183:source\bsw/statemachine.c ****             // Send ADC samples over UART
 184:source\bsw/statemachine.c ****             for (uint16_t i = 0; i < 1024; i++) {
 279              		.loc 1 184 0
 280 0094 0024     		movs	r4, #0
 281 0096 0AE0     		b	.L24
 282              	.LVL29:
 283              	.L25:
 185:source\bsw/statemachine.c ****                 UART_PutChar(adcArray[i]);
 284              		.loc 1 185 0 discriminator 3
 285 0098 15F81400 		ldrb	r0, [r5, r4, lsl #1]	@ zero_extendqisi2
 286 009c FFF7FEFF 		bl	UART_PutChar
 287              	.LVL30:
 186:source\bsw/statemachine.c ****                 UART_PutChar(adcArray[i] >> 8);
 288              		.loc 1 186 0 discriminator 3
 289 00a0 35F81400 		ldrh	r0, [r5, r4, lsl #1]
 290 00a4 000A     		lsrs	r0, r0, #8
 291 00a6 FFF7FEFF 		bl	UART_PutChar
 292              	.LVL31:
 184:source\bsw/statemachine.c ****                 UART_PutChar(adcArray[i]);
 293              		.loc 1 184 0 discriminator 3
 294 00aa 0134     		adds	r4, r4, #1
 295              	.LVL32:
 296 00ac A4B2     		uxth	r4, r4
 297              	.LVL33:
 298              	.L24:
 184:source\bsw/statemachine.c ****                 UART_PutChar(adcArray[i]);
 299              		.loc 1 184 0 is_stmt 0 discriminator 1
 300 00ae B4F5806F 		cmp	r4, #1024
 301 00b2 F1D3     		bcc	.L25
 302              	.LBE3:
 187:source\bsw/statemachine.c ****             }
 188:source\bsw/statemachine.c ****             /*
 189:source\bsw/statemachine.c ****             // Perform FFT on the ADC samples
 190:source\bsw/statemachine.c ****             fft_app(adcArray, fftArray, 1024);
 191:source\bsw/statemachine.c **** 
 192:source\bsw/statemachine.c ****             // Send FFT results over UART
 193:source\bsw/statemachine.c ****             for (uint32_t i = 0; i < 2048; i++) {
 194:source\bsw/statemachine.c ****                 UART_PutChar(fftArray[i]);
 195:source\bsw/statemachine.c ****                 UART_PutChar(fftArray[i] >> 8);
 196:source\bsw/statemachine.c ****                 UART_PutChar(fftArray[i] >> 16);
 197:source\bsw/statemachine.c ****                 UART_PutChar(fftArray[i] >> 24);
 198:source\bsw/statemachine.c ****             }
 199:source\bsw/statemachine.c ****             */
 200:source\bsw/statemachine.c ****             // Increment count
ARM GAS  C:\Users\acer\AppData\Local\Temp\ccudDKra.s 			page 10


 201:source\bsw/statemachine.c ****             count++;                      
 303              		.loc 1 201 0 is_stmt 1
 304 00b4 0C4A     		ldr	r2, .L29
 305 00b6 1379     		ldrb	r3, [r2, #4]	@ zero_extendqisi2
 306 00b8 0133     		adds	r3, r3, #1
 307 00ba DBB2     		uxtb	r3, r3
 308 00bc 1371     		strb	r3, [r2, #4]
 202:source\bsw/statemachine.c ****             
 203:source\bsw/statemachine.c ****             // Check if 'o' character received
 204:source\bsw/statemachine.c ****             if (charO) {
 309              		.loc 1 204 0
 310 00be 5278     		ldrb	r2, [r2, #1]	@ zero_extendqisi2
 311 00c0 8AB1     		cbz	r2, .L16
 205:source\bsw/statemachine.c ****                 if (count < 10) {  
 312              		.loc 1 205 0
 313 00c2 092B     		cmp	r3, #9
 314 00c4 05D8     		bhi	.L26
 206:source\bsw/statemachine.c ****                     // If count is less than 10, return to SAMPLING state
 207:source\bsw/statemachine.c ****                     state = SAMPLING;
 315              		.loc 1 207 0
 316 00c6 084B     		ldr	r3, .L29
 317 00c8 0122     		movs	r2, #1
 318 00ca DA70     		strb	r2, [r3, #3]
 208:source\bsw/statemachine.c ****                     charO = 0;
 319              		.loc 1 208 0
 320 00cc 0022     		movs	r2, #0
 321 00ce 5A70     		strb	r2, [r3, #1]
 322 00d0 38BD     		pop	{r3, r4, r5, pc}
 323              	.LVL34:
 324              	.L26:
 209:source\bsw/statemachine.c ****                 } else if (count == 10) {
 325              		.loc 1 209 0
 326 00d2 0A2B     		cmp	r3, #10
 327 00d4 07D1     		bne	.L16
 210:source\bsw/statemachine.c ****                     // If count is 10, return to IDLE state
 211:source\bsw/statemachine.c ****                     state = IDLE;  
 328              		.loc 1 211 0
 329 00d6 044B     		ldr	r3, .L29
 330 00d8 0022     		movs	r2, #0
 331 00da DA70     		strb	r2, [r3, #3]
 212:source\bsw/statemachine.c ****                     charO = 0;
 332              		.loc 1 212 0
 333 00dc 5A70     		strb	r2, [r3, #1]
 334 00de 38BD     		pop	{r3, r4, r5, pc}
 335              	.LVL35:
 336              	.L27:
 213:source\bsw/statemachine.c ****                 }
 214:source\bsw/statemachine.c ****             }
 215:source\bsw/statemachine.c ****             break;
 216:source\bsw/statemachine.c ****         
 217:source\bsw/statemachine.c ****         default:
 218:source\bsw/statemachine.c ****             // Default to IDLE state
 219:source\bsw/statemachine.c ****             state = IDLE;
 337              		.loc 1 219 0
 338 00e0 0022     		movs	r2, #0
 339 00e2 014B     		ldr	r3, .L29
 340 00e4 DA70     		strb	r2, [r3, #3]
ARM GAS  C:\Users\acer\AppData\Local\Temp\ccudDKra.s 			page 11


 341              	.LVL36:
 342              	.L16:
 343 00e6 38BD     		pop	{r3, r4, r5, pc}
 344              	.LVL37:
 345              	.L30:
 346              		.align	2
 347              	.L29:
 348 00e8 00000000 		.word	.LANCHOR0
 349              		.cfi_endproc
 350              	.LFE122:
 351              		.size	statemachine, .-statemachine
 352              		.global	fftArray
 353              		.global	buttonPressed
 354              		.global	charO
 355              		.global	charS
 356              		.global	count
 357              		.comm	charRx,1,1
 358              		.global	state
 359              		.bss
 360              		.align	2
 361              		.set	.LANCHOR0,. + 0
 362              		.type	charS, %object
 363              		.size	charS, 1
 364              	charS:
 365 0000 00       		.space	1
 366              		.type	charO, %object
 367              		.size	charO, 1
 368              	charO:
 369 0001 00       		.space	1
 370              		.type	buttonPressed, %object
 371              		.size	buttonPressed, 1
 372              	buttonPressed:
 373 0002 00       		.space	1
 374              		.type	state, %object
 375              		.size	state, 1
 376              	state:
 377 0003 00       		.space	1
 378              		.type	count, %object
 379              		.size	count, 1
 380              	count:
 381 0004 00       		.space	1
 382 0005 000000   		.space	3
 383              		.type	fftArray, %object
 384              		.size	fftArray, 8192
 385              	fftArray:
 386 0008 00000000 		.space	8192
 386      00000000 
 386      00000000 
 386      00000000 
 386      00000000 
 387              		.text
 388              	.Letext0:
 389              		.file 2 "c:\\program files (x86)\\cypress\\psoc creator\\4.4\\psoc creator\\import\\gnu\\arm\\5.4.
 390              		.file 3 "c:\\program files (x86)\\cypress\\psoc creator\\4.4\\psoc creator\\import\\gnu\\arm\\5.4.
 391              		.file 4 "Generated_Source\\PSoC5/cytypes.h"
 392              		.file 5 "source\\bsw\\statemachine.h"
 393              		.file 6 "Generated_Source\\PSoC5/core_cm3.h"
ARM GAS  C:\Users\acer\AppData\Local\Temp\ccudDKra.s 			page 12


 394              		.file 7 "Generated_Source\\PSoC5/isr_UART.h"
 395              		.file 8 "Generated_Source\\PSoC5/UART.h"
 396              		.file 9 "Generated_Source\\PSoC5/Push_Button.h"
 397              		.file 10 "Generated_Source\\PSoC5/WaveDAC.h"
 398              		.file 11 "Generated_Source\\PSoC5/ADC_DelSig.h"
 399              		.file 12 "Generated_Source\\PSoC5/isr_pushButton.h"
 400              		.file 13 "Generated_Source\\PSoC5/LED_RED.h"
 401              		.file 14 "Generated_Source\\PSoC5/LED_ORANGE.h"
 402              		.file 15 "Generated_Source\\PSoC5/LED_GREEN.h"